target datalayout = "e-m:e-p270:32:32-p271:32:32-p272:64:64-i64:64-i128:128-f80:128-n8:16:32:64-S128"
target triple = "x86_64-unknown-linux-gnu"

%"struct.llvh::fltSemantics" = type { i16, i16, i32, i32 }
%"class.llvh::detail::IEEEFloat" = type <{ ptr, %"union.llvh::detail::IEEEFloat::Significand", i16, i8, [5 x i8] }>
%"union.llvh::detail::IEEEFloat::Significand" = type { i64 }

; Function Attrs: mustprogress nounwind uwtable
define linkonce_odr hidden noundef zeroext i1 @_ZNK4llvh6detail9IEEEFloat10isInfinityEv(ptr noundef nonnull align 8 dereferenceable(24) %this) #1 comdat align 2 {
entry:
  %this.addr = alloca ptr, align 8
  store ptr %this, ptr %this.addr, align 8
  %this1 = load ptr, ptr %this.addr, align 8
  %category = getelementptr inbounds %"class.llvh::detail::IEEEFloat", ptr %this1, i32 0, i32 3
  %bf.load = load i8, ptr %category, align 2
  %bf.clear = and i8 %bf.load, 7
  %bf.cast = zext i8 %bf.clear to i32
  %cmp = icmp eq i32 %bf.cast, 0
  ret i1 %cmp
}

; Function Attrs: mustprogress nounwind uwtable
define linkonce_odr hidden noundef zeroext i1 @_ZNK4llvh6detail9IEEEFloat5isNaNEv(ptr noundef nonnull align 8 dereferenceable(24) %this) #1 comdat align 2 {
entry:
  %this.addr = alloca ptr, align 8
  store ptr %this, ptr %this.addr, align 8
  %this1 = load ptr, ptr %this.addr, align 8
  %category = getelementptr inbounds %"class.llvh::detail::IEEEFloat", ptr %this1, i32 0, i32 3
  %bf.load = load i8, ptr %category, align 2
  %bf.clear = and i8 %bf.load, 7
  %bf.cast = zext i8 %bf.clear to i32
  %cmp = icmp eq i32 %bf.cast, 1
  ret i1 %cmp
}

; Function Attrs: mustprogress nounwind uwtable
define hidden noundef ptr @_ZNK4llvh6detail9IEEEFloat16significandPartsEv(ptr noundef nonnull align 8 dereferenceable(24) %this) #1 align 2 {
entry:
  %this.addr = alloca ptr, align 8
  store ptr %this, ptr %this.addr, align 8
  %this1 = load ptr, ptr %this.addr, align 8
  %call = call noundef ptr @_ZN4llvh6detail9IEEEFloat16significandPartsEv(ptr noundef nonnull align 8 dereferenceable(24) %this1)
  ret ptr %call
}

; Function Attrs: mustprogress nounwind uwtable
define hidden noundef ptr @_ZN4llvh6detail9IEEEFloat16significandPartsEv(ptr noundef nonnull align 8 dereferenceable(24) %this) #1 align 2 {
entry:
  %retval = alloca ptr, align 8
  %this.addr = alloca ptr, align 8
  store ptr %this, ptr %this.addr, align 8
  %this1 = load ptr, ptr %this.addr, align 8
  %call = call noundef i32 @_ZNK4llvh6detail9IEEEFloat9partCountEv(ptr noundef nonnull align 8 dereferenceable(24) %this1)
  %cmp = icmp ugt i32 %call, 1
  br i1 %cmp, label %if.then, label %if.else

if.then:                                          ; preds = %entry
  %significand = getelementptr inbounds %"class.llvh::detail::IEEEFloat", ptr %this1, i32 0, i32 1
  %0 = load ptr, ptr %significand, align 8
  store ptr %0, ptr %retval, align 8
  br label %return

if.else:                                          ; preds = %entry
  %significand2 = getelementptr inbounds %"class.llvh::detail::IEEEFloat", ptr %this1, i32 0, i32 1
  store ptr %significand2, ptr %retval, align 8
  br label %return

return:                                           ; preds = %if.else, %if.then
  %1 = load ptr, ptr %retval, align 8
  ret ptr %1
}

; Function Attrs: mustprogress nounwind uwtable
define linkonce_odr hidden noundef zeroext i1 @_ZNK4llvh6detail9IEEEFloat6isZeroEv(ptr noundef nonnull align 8 dereferenceable(24) %this) #1 comdat align 2 {
entry:
  %this.addr = alloca ptr, align 8
  store ptr %this, ptr %this.addr, align 8
  %this1 = load ptr, ptr %this.addr, align 8
  %category = getelementptr inbounds %"class.llvh::detail::IEEEFloat", ptr %this1, i32 0, i32 3
  %bf.load = load i8, ptr %category, align 2
  %bf.clear = and i8 %bf.load, 7
  %bf.cast = zext i8 %bf.clear to i32
  %cmp = icmp eq i32 %bf.cast, 3
  ret i1 %cmp
}

; Function Attrs: mustprogress nounwind uwtable
define linkonce_odr hidden noundef zeroext i1 @_ZNK4llvh6detail9IEEEFloat8isFiniteEv(ptr noundef nonnull align 8 dereferenceable(24) %this) #1 comdat align 2 {
entry:
  %this.addr = alloca ptr, align 8
  store ptr %this, ptr %this.addr, align 8
  %this1 = load ptr, ptr %this.addr, align 8
  %call = call noundef zeroext i1 @_ZNK4llvh6detail9IEEEFloat5isNaNEv(ptr noundef nonnull align 8 dereferenceable(24) %this1)
  br i1 %call, label %land.end, label %land.rhs

land.rhs:                                         ; preds = %entry
  %call2 = call noundef zeroext i1 @_ZNK4llvh6detail9IEEEFloat10isInfinityEv(ptr noundef nonnull align 8 dereferenceable(24) %this1)
  %lnot = xor i1 %call2, true
  br label %land.end

land.end:                                         ; preds = %land.rhs, %entry
  %0 = phi i1 [ false, %entry ], [ %lnot, %land.rhs ]
  ret i1 %0
}

; Function Attrs: mustprogress nounwind uwtable
define internal noundef i32 @_ZN4llvhL16partCountForBitsEj(i32 noundef %bits) #1 {
entry:
  %bits.addr = alloca i32, align 4
  store i32 %bits, ptr %bits.addr, align 4
  %0 = load i32, ptr %bits.addr, align 4
  %add = add i32 %0, 64
  %sub = sub i32 %add, 1
  %div = udiv i32 %sub, 64
  ret i32 %div
}

; Function Attrs: mustprogress nounwind uwtable
define hidden void @_ZN4llvh6detail9IEEEFloat15copySignificandERKS1_(ptr noundef nonnull align 8 dereferenceable(24) %this, ptr noundef nonnull align 8 dereferenceable(24) %rhs) #1 align 2 {
entry:
  %this.addr = alloca ptr, align 8
  %rhs.addr = alloca ptr, align 8
  store ptr %this, ptr %this.addr, align 8
  store ptr %rhs, ptr %rhs.addr, align 8
  %this1 = load ptr, ptr %this.addr, align 8
  %call = call noundef ptr @_ZN4llvh6detail9IEEEFloat16significandPartsEv(ptr noundef nonnull align 8 dereferenceable(24) %this1)
  %0 = load ptr, ptr %rhs.addr, align 8
  %call2 = call noundef ptr @_ZNK4llvh6detail9IEEEFloat16significandPartsEv(ptr noundef nonnull align 8 dereferenceable(24) %0)
  %call3 = call noundef i32 @_ZNK4llvh6detail9IEEEFloat9partCountEv(ptr noundef nonnull align 8 dereferenceable(24) %this1)
  call void @_ZN4llvh5APInt8tcAssignEPmPKmj(ptr noundef %call, ptr noundef %call2, i32 noundef %call3)
  ret void
}

; Function Attrs: mustprogress nounwind uwtable
define linkonce_odr hidden noundef zeroext i1 @_ZNK4llvh6detail9IEEEFloat15isFiniteNonZeroEv(ptr noundef nonnull align 8 dereferenceable(24) %this) #1 comdat align 2 {
entry:
  %this.addr = alloca ptr, align 8
  store ptr %this, ptr %this.addr, align 8
  %this1 = load ptr, ptr %this.addr, align 8
  %call = call noundef zeroext i1 @_ZNK4llvh6detail9IEEEFloat8isFiniteEv(ptr noundef nonnull align 8 dereferenceable(24) %this1)
  br i1 %call, label %land.rhs, label %land.end

land.rhs:                                         ; preds = %entry
  %call2 = call noundef zeroext i1 @_ZNK4llvh6detail9IEEEFloat6isZeroEv(ptr noundef nonnull align 8 dereferenceable(24) %this1)
  %lnot = xor i1 %call2, true
  br label %land.end

land.end:                                         ; preds = %land.rhs, %entry
  %0 = phi i1 [ false, %entry ], [ %lnot, %land.rhs ]
  ret i1 %0
}

; Function Attrs: mustprogress nounwind uwtable
define hidden noundef i32 @_ZNK4llvh6detail9IEEEFloat9partCountEv(ptr noundef nonnull align 8 dereferenceable(24) %this) #1 align 2 {
entry:
  %this.addr = alloca ptr, align 8
  store ptr %this, ptr %this.addr, align 8
  %this1 = load ptr, ptr %this.addr, align 8
  %semantics = getelementptr inbounds %"class.llvh::detail::IEEEFloat", ptr %this1, i32 0, i32 0
  %0 = load ptr, ptr %semantics, align 8
  %precision = getelementptr inbounds %"struct.llvh::fltSemantics", ptr %0, i32 0, i32 2
  %1 = load i32, ptr %precision, align 4
  %add = add i32 %1, 1
  %call = call noundef i32 @_ZN4llvhL16partCountForBitsEj(i32 noundef %add)
  ret i32 %call
}

; Function Attrs: mustprogress nounwind uwtable
define linkonce_odr hidden noundef zeroext i1 @_ZNK4llvh6detail9IEEEFloat12needsCleanupEv(ptr noundef nonnull align 8 dereferenceable(24) %this) #1 comdat align 2 {
entry:
  %this.addr = alloca ptr, align 8
  store ptr %this, ptr %this.addr, align 8
  %this1 = load ptr, ptr %this.addr, align 8
  %call = call noundef i32 @_ZNK4llvh6detail9IEEEFloat9partCountEv(ptr noundef nonnull align 8 dereferenceable(24) %this1)
  %cmp = icmp ugt i32 %call, 1
  ret i1 %cmp
}

; Function Attrs: mustprogress nounwind uwtable
define hidden void @_ZN4llvh6detail9IEEEFloat6assignERKS1_(ptr noundef nonnull align 8 dereferenceable(24) %this, ptr noundef nonnull align 8 dereferenceable(24) %rhs) #1 align 2 {
entry:
  %this.addr = alloca ptr, align 8
  %rhs.addr = alloca ptr, align 8
  store ptr %this, ptr %this.addr, align 8
  store ptr %rhs, ptr %rhs.addr, align 8
  %this1 = load ptr, ptr %this.addr, align 8
  %0 = load ptr, ptr %rhs.addr, align 8
  %sign = getelementptr inbounds %"class.llvh::detail::IEEEFloat", ptr %0, i32 0, i32 3
  %bf.load = load i8, ptr %sign, align 2
  %bf.lshr = lshr i8 %bf.load, 3
  %bf.clear = and i8 %bf.lshr, 1
  %bf.cast = zext i8 %bf.clear to i32
  %sign2 = getelementptr inbounds %"class.llvh::detail::IEEEFloat", ptr %this1, i32 0, i32 3
  %1 = trunc i32 %bf.cast to i8
  %bf.load3 = load i8, ptr %sign2, align 2
  %bf.value = and i8 %1, 1
  %bf.shl = shl i8 %bf.value, 3
  %bf.clear4 = and i8 %bf.load3, -9
  %bf.set = or i8 %bf.clear4, %bf.shl
  store i8 %bf.set, ptr %sign2, align 2
  %2 = load ptr, ptr %rhs.addr, align 8
  %category = getelementptr inbounds %"class.llvh::detail::IEEEFloat", ptr %2, i32 0, i32 3
  %bf.load5 = load i8, ptr %category, align 2
  %bf.clear6 = and i8 %bf.load5, 7
  %bf.cast7 = zext i8 %bf.clear6 to i32
  %category8 = getelementptr inbounds %"class.llvh::detail::IEEEFloat", ptr %this1, i32 0, i32 3
  %3 = trunc i32 %bf.cast7 to i8
  %bf.load9 = load i8, ptr %category8, align 2
  %bf.value10 = and i8 %3, 7
  %bf.clear11 = and i8 %bf.load9, -8
  %bf.set12 = or i8 %bf.clear11, %bf.value10
  store i8 %bf.set12, ptr %category8, align 2
  %4 = load ptr, ptr %rhs.addr, align 8
  %exponent = getelementptr inbounds %"class.llvh::detail::IEEEFloat", ptr %4, i32 0, i32 2
  %5 = load i16, ptr %exponent, align 8
  %exponent13 = getelementptr inbounds %"class.llvh::detail::IEEEFloat", ptr %this1, i32 0, i32 2
  store i16 %5, ptr %exponent13, align 8
  %call = call noundef zeroext i1 @_ZNK4llvh6detail9IEEEFloat15isFiniteNonZeroEv(ptr noundef nonnull align 8 dereferenceable(24) %this1)
  br i1 %call, label %if.then, label %lor.lhs.false

lor.lhs.false:                                    ; preds = %entry
  %category14 = getelementptr inbounds %"class.llvh::detail::IEEEFloat", ptr %this1, i32 0, i32 3
  %bf.load15 = load i8, ptr %category14, align 2
  %bf.clear16 = and i8 %bf.load15, 7
  %bf.cast17 = zext i8 %bf.clear16 to i32
  %cmp = icmp eq i32 %bf.cast17, 1
  br i1 %cmp, label %if.then, label %if.end

if.then:                                          ; preds = %lor.lhs.false, %entry
  %6 = load ptr, ptr %rhs.addr, align 8
  call void @_ZN4llvh6detail9IEEEFloat15copySignificandERKS1_(ptr noundef nonnull align 8 dereferenceable(24) %this1, ptr noundef nonnull align 8 dereferenceable(24) %6)
  br label %if.end

if.end:                                           ; preds = %if.then, %lor.lhs.false
  ret void
}

; Function Attrs: mustprogress nounwind uwtable
define hidden void @_ZN4llvh6detail9IEEEFloat10initializeEPKNS_12fltSemanticsE(ptr noundef nonnull align 8 dereferenceable(24) %this, ptr noundef %ourSemantics) #1 align 2 {
entry:
  %this.addr = alloca ptr, align 8
  %ourSemantics.addr = alloca ptr, align 8
  %count = alloca i32, align 4
  store ptr %this, ptr %this.addr, align 8
  store ptr %ourSemantics, ptr %ourSemantics.addr, align 8
  %this1 = load ptr, ptr %this.addr, align 8
  %0 = load ptr, ptr %ourSemantics.addr, align 8
  %semantics = getelementptr inbounds %"class.llvh::detail::IEEEFloat", ptr %this1, i32 0, i32 0
  store ptr %0, ptr %semantics, align 8
  %call = call noundef i32 @_ZNK4llvh6detail9IEEEFloat9partCountEv(ptr noundef nonnull align 8 dereferenceable(24) %this1)
  store i32 %call, ptr %count, align 4
  %1 = load i32, ptr %count, align 4
  %cmp = icmp ugt i32 %1, 1
  br i1 %cmp, label %if.then, label %if.end

if.then:                                          ; preds = %entry
  %2 = load i32, ptr %count, align 4
  %conv = zext i32 %2 to i64
  %3 = call { i64, i1 } @llvm.umul.with.overflow.i64(i64 %conv, i64 8)
  %4 = extractvalue { i64, i1 } %3, 1
  %5 = extractvalue { i64, i1 } %3, 0
  %6 = select i1 %4, i64 -1, i64 %5
  %call2 = call noalias noundef nonnull ptr @_Znam(i64 noundef %6) #13
  %significand = getelementptr inbounds %"class.llvh::detail::IEEEFloat", ptr %this1, i32 0, i32 1
  store ptr %call2, ptr %significand, align 8
  br label %if.end

if.end:                                           ; preds = %if.then, %entry
  ret void
}

; Function Attrs: mustprogress nounwind uwtable
define hidden void @_ZN4llvh6detail9IEEEFloat15freeSignificandEv(ptr noundef nonnull align 8 dereferenceable(24) %this) #1 align 2 {
entry:
  %this.addr = alloca ptr, align 8
  store ptr %this, ptr %this.addr, align 8
  %this1 = load ptr, ptr %this.addr, align 8
  %call = call noundef zeroext i1 @_ZNK4llvh6detail9IEEEFloat12needsCleanupEv(ptr noundef nonnull align 8 dereferenceable(24) %this1)
  br i1 %call, label %if.then, label %if.end

if.then:                                          ; preds = %entry
  %significand = getelementptr inbounds %"class.llvh::detail::IEEEFloat", ptr %this1, i32 0, i32 1
  %0 = load ptr, ptr %significand, align 8
  %isnull = icmp eq ptr %0, null
  br i1 %isnull, label %delete.end, label %delete.notnull

delete.notnull:                                   ; preds = %if.then
  call void @_ZdaPv(ptr noundef %0) #14
  br label %delete.end

delete.end:                                       ; preds = %delete.notnull, %if.then
  br label %if.end

if.end:                                           ; preds = %delete.end, %entry
  ret void
}

; Function Attrs: mustprogress nounwind uwtable
define hidden noundef nonnull align 8 dereferenceable(24) ptr @_ZN4llvh6detail9IEEEFloataSERKS1_(ptr noundef nonnull align 8 dereferenceable(24) %this, ptr noundef nonnull align 8 dereferenceable(24) %rhs) #1 align 2 {
entry:
  %this.addr = alloca ptr, align 8
  %rhs.addr = alloca ptr, align 8
  store ptr %this, ptr %this.addr, align 8
  store ptr %rhs, ptr %rhs.addr, align 8
  %this1 = load ptr, ptr %this.addr, align 8
  %0 = load ptr, ptr %rhs.addr, align 8
  %cmp = icmp ne ptr %this1, %0
  br i1 %cmp, label %if.then, label %if.end6

if.then:                                          ; preds = %entry
  %semantics = getelementptr inbounds %"class.llvh::detail::IEEEFloat", ptr %this1, i32 0, i32 0
  %1 = load ptr, ptr %semantics, align 8
  %2 = load ptr, ptr %rhs.addr, align 8
  %semantics2 = getelementptr inbounds %"class.llvh::detail::IEEEFloat", ptr %2, i32 0, i32 0
  %3 = load ptr, ptr %semantics2, align 8
  %cmp3 = icmp ne ptr %1, %3
  br i1 %cmp3, label %if.then4, label %if.end

if.then4:                                         ; preds = %if.then
  call void @_ZN4llvh6detail9IEEEFloat15freeSignificandEv(ptr noundef nonnull align 8 dereferenceable(24) %this1)
  %4 = load ptr, ptr %rhs.addr, align 8
  %semantics5 = getelementptr inbounds %"class.llvh::detail::IEEEFloat", ptr %4, i32 0, i32 0
  %5 = load ptr, ptr %semantics5, align 8
  call void @_ZN4llvh6detail9IEEEFloat10initializeEPKNS_12fltSemanticsE(ptr noundef nonnull align 8 dereferenceable(24) %this1, ptr noundef %5)
  br label %if.end

if.end:                                           ; preds = %if.then4, %if.then
  %6 = load ptr, ptr %rhs.addr, align 8
  call void @_ZN4llvh6detail9IEEEFloat6assignERKS1_(ptr noundef nonnull align 8 dereferenceable(24) %this1, ptr noundef nonnull align 8 dereferenceable(24) %6)
  br label %if.end6

if.end6:                                          ; preds = %if.end, %entry
  ret ptr %this1
}