; Function Attrs: mustprogress nounwind uwtable
define hidden noundef nonnull align 8 dereferenceable(24) ptr @_ZN4llvh6detail9IEEEFloataSERKS1_(ptr noundef nonnull returned align 8 dereferenceable(24) %this, ptr noundef nonnull align 8 dereferenceable(24) %rhs) local_unnamed_addr #2 align 2 {
entry:
  %cmp.not = icmp eq ptr %this, %rhs
  br i1 %cmp.not, label %if.end6, label %if.then

if.then:                                          ; preds = %entry
  %0 = load ptr, ptr %this, align 8
  %1 = load ptr, ptr %rhs, align 8
  %cmp3.not = icmp eq ptr %0, %1
  br i1 %cmp3.not, label %if.end, label %if.then4

if.then4:                                         ; preds = %if.then
  %precision.i.i.i = getelementptr inbounds nuw i8, ptr %0, i64 4
  %2 = load i32, ptr %precision.i.i.i, align 4
  %3 = add i32 %2, -64
  %cmp.i.i = icmp ult i32 %3, -128
  br i1 %cmp.i.i, label %if.then.i, label %_ZN4llvh6detail9IEEEFloat15freeSignificandEv.exit

if.then.i:                                        ; preds = %if.then4
  %significand.i = getelementptr inbounds nuw i8, ptr %this, i64 8
  %4 = load ptr, ptr %significand.i, align 8
  %isnull.i = icmp eq ptr %4, null
  br i1 %isnull.i, label %_ZN4llvh6detail9IEEEFloat15freeSignificandEv.exit, label %delete.notnull.i

delete.notnull.i:                                 ; preds = %if.then.i
  tail call void @_ZdaPv(ptr noundef nonnull %4) #25
  %.pre = load ptr, ptr %rhs, align 8
  br label %_ZN4llvh6detail9IEEEFloat15freeSignificandEv.exit

_ZN4llvh6detail9IEEEFloat15freeSignificandEv.exit: ; preds = %if.then4, %if.then.i, %delete.notnull.i
  %5 = phi ptr [ %1, %if.then4 ], [ %1, %if.then.i ], [ %.pre, %delete.notnull.i ]
  store ptr %5, ptr %this, align 8
  %precision.i.i = getelementptr inbounds nuw i8, ptr %5, i64 4
  %6 = load i32, ptr %precision.i.i, align 4
  %sub.i.i.i = add i32 %6, 64
  %cmp.i = icmp ugt i32 %sub.i.i.i, 127
  br i1 %cmp.i, label %if.then.i4, label %if.end

if.then.i4:                                       ; preds = %_ZN4llvh6detail9IEEEFloat15freeSignificandEv.exit
  %7 = lshr i32 %sub.i.i.i, 3
  %8 = and i32 %7, 536870904
  %9 = zext nneg i32 %8 to i64
  %call2.i = tail call noalias noundef nonnull ptr @_Znam(i64 noundef %9) #24
  %significand.i5 = getelementptr inbounds nuw i8, ptr %this, i64 8
  store ptr %call2.i, ptr %significand.i5, align 8
  br label %if.end

if.end:                                           ; preds = %if.then.i4, %_ZN4llvh6detail9IEEEFloat15freeSignificandEv.exit, %if.then
  %10 = phi ptr [ %5, %if.then.i4 ], [ %5, %_ZN4llvh6detail9IEEEFloat15freeSignificandEv.exit ], [ %0, %if.then ]
  %sign.i = getelementptr inbounds nuw i8, ptr %rhs, i64 18
  %bf.load.i = load i8, ptr %sign.i, align 2
  %bf.clear.i = and i8 %bf.load.i, 8
  %sign2.i = getelementptr inbounds nuw i8, ptr %this, i64 18
  %bf.load3.i = load i8, ptr %sign2.i, align 2
  %bf.clear4.i = and i8 %bf.load3.i, -9
  %bf.set.i = or disjoint i8 %bf.clear4.i, %bf.clear.i
  store i8 %bf.set.i, ptr %sign2.i, align 2
  %bf.load5.i = load i8, ptr %sign.i, align 2
  %bf.clear6.i = and i8 %bf.load5.i, 7
  %bf.clear11.i = and i8 %bf.set.i, -8
  %bf.set12.i = or disjoint i8 %bf.clear11.i, %bf.clear6.i
  store i8 %bf.set12.i, ptr %sign2.i, align 2
  %exponent.i = getelementptr inbounds nuw i8, ptr %rhs, i64 16
  %11 = load i16, ptr %exponent.i, align 8
  %exponent13.i = getelementptr inbounds nuw i8, ptr %this, i64 16
  store i16 %11, ptr %exponent13.i, align 8
  %bf.clear.i.i.i.i = and i8 %bf.load5.i, 6
  %12 = icmp ne i8 %bf.clear.i.i.i.i, 0
  %cmp.i.i.i = icmp ne i8 %bf.clear6.i, 3
  %13 = and i1 %12, %cmp.i.i.i
  %cmp.i6 = icmp eq i8 %bf.clear6.i, 1
  %or.cond.i = or i1 %cmp.i6, %13
  br i1 %or.cond.i, label %if.then.i7, label %if.end6

if.then.i7:                                       ; preds = %if.end
  %precision.i.i.i.i = getelementptr inbounds nuw i8, ptr %10, i64 4
  %14 = load i32, ptr %precision.i.i.i.i, align 4
  %15 = add i32 %14, -64
  %cmp.i.i4.i = icmp ult i32 %15, -128
  %significand.i.i.i = getelementptr inbounds nuw i8, ptr %this, i64 8
  %16 = load ptr, ptr %significand.i.i.i, align 8
  %retval.0.i.i.i = select i1 %cmp.i.i4.i, ptr %16, ptr %significand.i.i.i
  %17 = load ptr, ptr %rhs, align 8
  %precision.i.i.i.i.i = getelementptr inbounds nuw i8, ptr %17, i64 4
  %18 = load i32, ptr %precision.i.i.i.i.i, align 4
  %19 = add i32 %18, -64
  %cmp.i.i.i.i = icmp ult i32 %19, -128
  %significand.i.i.i.i = getelementptr inbounds nuw i8, ptr %rhs, i64 8
  %20 = load ptr, ptr %significand.i.i.i.i, align 8
  %retval.0.i.i.i.i = select i1 %cmp.i.i.i.i, ptr %20, ptr %significand.i.i.i.i
  %sub.i.i.i.i = add i32 %14, 64
  %div1.i.i.i.i = lshr i32 %sub.i.i.i.i, 6
  tail call void @_ZN4llvh5APInt8tcAssignEPmPKmj(ptr noundef %retval.0.i.i.i, ptr noundef %retval.0.i.i.i.i, i32 noundef %div1.i.i.i.i) #26
  br label %if.end6

if.end6:                                          ; preds = %if.then.i7, %if.end, %entry
  ret ptr %this
}